; Function Attrs: mustprogress nofree norecurse nounwind willreturn memory(read, argmem: readwrite, inaccessiblemem: none) uwtable
define noundef i64 @_ZNK13sentencepiece19SelfTestData_Sample12ByteSizeLongEv(ptr noundef nonnull align 8 captures(none) dereferenceable(40) %0) unnamed_addr #15 align 2 personality ptr @__gxx_personality_v0 {
  %2 = getelementptr inbounds nuw i8, ptr %0, i64 16
  %3 = load i32, ptr %2, align 8, !tbaa !11
  %4 = and i32 %3, 3
  %.not = icmp eq i32 %4, 0
  br i1 %.not, label %46, label %5

5:                                                ; preds = %1
  %6 = and i32 %3, 1
  %.not9 = icmp eq i32 %6, 0
  br i1 %.not9, label %25, label %7

7:                                                ; preds = %5
  %8 = getelementptr inbounds nuw i8, ptr %0, i64 24
  %9 = load ptr, ptr %8, align 8, !tbaa !15
  %10 = ptrtoint ptr %9 to i64
  %11 = and i64 %10, -2
  %12 = inttoptr i64 %11 to ptr
  %13 = getelementptr inbounds nuw i8, ptr %12, i64 8
  %14 = load i64, ptr %13, align 8, !tbaa !41
  %15 = trunc i64 %14 to i32
  %16 = or i32 %15, 1
  %17 = tail call range(i32 0, 33) i32 @llvm.ctlz.i32(i32 %16, i1 true)
  %18 = xor i32 %17, 31
  %19 = mul nuw nsw i32 %18, 9
  %20 = add nuw nsw i32 %19, 73
  %21 = lshr i32 %20, 6
  %22 = zext nneg i32 %21 to i64
  %23 = add i64 %14, 1
  %24 = add i64 %23, %22
  br label %25

25:                                               ; preds = %7, %5
  %.1 = phi i64 [ %24, %7 ], [ 0, %5 ]
  %26 = and i32 %3, 2
  %.not10 = icmp eq i32 %26, 0
  br i1 %.not10, label %46, label %27

27:                                               ; preds = %25
  %28 = getelementptr inbounds nuw i8, ptr %0, i64 32
  %29 = load ptr, ptr %28, align 8, !tbaa !15
  %30 = ptrtoint ptr %29 to i64
  %31 = and i64 %30, -2
  %32 = inttoptr i64 %31 to ptr
  %33 = getelementptr inbounds nuw i8, ptr %32, i64 8
  %34 = load i64, ptr %33, align 8, !tbaa !41
  %35 = trunc i64 %34 to i32
  %36 = or i32 %35, 1
  %37 = tail call range(i32 0, 33) i32 @llvm.ctlz.i32(i32 %36, i1 true)
  %38 = xor i32 %37, 31
  %39 = mul nuw nsw i32 %38, 9
  %40 = add nuw nsw i32 %39, 73
  %41 = lshr i32 %40, 6
  %42 = zext nneg i32 %41 to i64
  %43 = add i64 %.1, 1
  %44 = add i64 %43, %34
  %45 = add i64 %44, %42
  br label %46

46:                                               ; preds = %25, %27, %1
  %.0 = phi i64 [ %45, %27 ], [ %.1, %25 ], [ 0, %1 ]
  %47 = getelementptr inbounds nuw i8, ptr %0, i64 8
  %48 = load ptr, ptr %47, align 8, !tbaa !3
  %49 = ptrtoint ptr %48 to i64
  %50 = and i64 %49, 1
  %.not11 = icmp eq i64 %50, 0
  br i1 %.not11, label %56, label %_ZNK6google8protobuf8internal16InternalMetadata14unknown_fieldsINSt7__cxx1112basic_stringIcSt11char_traitsIcESaIcEEEEERKT_PFSC_vE.exit, !prof !10

_ZNK6google8protobuf8internal16InternalMetadata14unknown_fieldsINSt7__cxx1112basic_stringIcSt11char_traitsIcESaIcEEEEERKT_PFSC_vE.exit: ; preds = %46
  %51 = and i64 %49, -2
  %52 = inttoptr i64 %51 to ptr
  %53 = getelementptr inbounds nuw i8, ptr %52, i64 16
  %54 = load i64, ptr %53, align 8, !tbaa !41
  %55 = add i64 %54, %.0
  br label %56

56:                                               ; preds = %_ZNK6google8protobuf8internal16InternalMetadata14unknown_fieldsINSt7__cxx1112basic_stringIcSt11char_traitsIcESaIcEEEEERKT_PFSC_vE.exit, %46
  %.2 = phi i64 [ %55, %_ZNK6google8protobuf8internal16InternalMetadata14unknown_fieldsINSt7__cxx1112basic_stringIcSt11char_traitsIcESaIcEEEEERKT_PFSC_vE.exit ], [ %.0, %46 ]
  %57 = trunc i64 %.2 to i32
  %58 = getelementptr inbounds nuw i8, ptr %0, i64 20
  store atomic i32 %57, ptr %58 monotonic, align 4
  ret i64 %.2
}